target datalayout = "e-m:e-p270:32:32-p271:32:32-p272:64:64-i64:64-i128:128-f80:128-n8:16:32:64-S128"
target triple = "x86_64-unknown-linux-gnu"

%class.btConvex2dShape = type { %class.btConvexShape, ptr }
%class.btConvexShape = type { %class.btCollisionShape }
%class.btCollisionShape = type { ptr, i32, ptr, i32, i32 }

; Function Attrs: mustprogress uwtable
define dso_local void @_ZNK15btConvex2dShape49batchedUnitVectorGetSupportingVertexWithoutMarginEPK9btVector3PS0_i(ptr noundef nonnull align 8 dereferenceable(40) %this, ptr noundef %vectors, ptr noundef %supportVerticesOut, i32 noundef %numVectors) unnamed_addr #2 align 2 {
entry:
  %this.addr = alloca ptr, align 8
  %vectors.addr = alloca ptr, align 8
  %supportVerticesOut.addr = alloca ptr, align 8
  %numVectors.addr = alloca i32, align 4
  store ptr %this, ptr %this.addr, align 8
  store ptr %vectors, ptr %vectors.addr, align 8
  store ptr %supportVerticesOut, ptr %supportVerticesOut.addr, align 8
  store i32 %numVectors, ptr %numVectors.addr, align 4
  %this1 = load ptr, ptr %this.addr, align 8
  %m_childConvexShape = getelementptr inbounds %class.btConvex2dShape, ptr %this1, i32 0, i32 1
  %0 = load ptr, ptr %m_childConvexShape, align 8
  %1 = load ptr, ptr %vectors.addr, align 8
  %2 = load ptr, ptr %supportVerticesOut.addr, align 8
  %3 = load i32, ptr %numVectors.addr, align 4
  %vtable = load ptr, ptr %0, align 8
  %vfn = getelementptr inbounds ptr, ptr %vtable, i64 19
  %4 = load ptr, ptr %vfn, align 8
  call void %4(ptr noundef nonnull align 8 dereferenceable(32) %0, ptr noundef %1, ptr noundef %2, i32 noundef %3)
  ret void
}